target datalayout = "e-m:e-p270:32:32-p271:32:32-p272:64:64-i64:64-i128:128-f80:128-n8:16:32:64-S128"
target triple = "x86_64-pc-linux-gnu"

%struct.slurm_step_id_msg = type { i64, i32, i32, i32 }
%struct.slurm_step_ctx_struct = type { i16, i32, ptr, ptr, ptr, i16 }
%struct.step_launch_state = type { %union.pthread_mutex_t, %union.pthread_cond_t, i32, ptr, ptr, ptr, i64, i8, ptr, i32, i8, i8, i8, i32, ptr, i64, i32, i16, ptr, ptr, ptr, [1 x %struct.mpi_step_info_t], ptr, i32, %struct.slurm_step_launch_callbacks_t }
%union.pthread_mutex_t = type { %struct.__pthread_mutex_s }
%struct.__pthread_mutex_s = type { i32, i32, i32, i32, i32, i16, i16, %struct.__pthread_internal_list }
%struct.__pthread_internal_list = type { ptr, ptr }
%union.pthread_cond_t = type { %struct.__pthread_cond_s }
%struct.__pthread_cond_s = type { %union.__atomic_wide_counter, %union.__atomic_wide_counter, [2 x i32], [2 x i32], i32, i32, [2 x i32] }
%union.__atomic_wide_counter = type { i64 }
%struct.mpi_step_info_t = type { i32, i32, %struct.slurm_step_id_msg, ptr }
%struct.slurm_step_launch_callbacks_t = type { ptr, ptr, ptr, ptr, ptr }
%struct.job_step_specs = type { ptr, ptr, i32, i32, i32, i32, ptr, i16, i16, ptr, ptr, i32, ptr, i16, i64, ptr, ptr, i32, i32, ptr, ptr, i32, i16, i16, i16, i16, i32, ptr, %struct.slurm_step_id_msg, i32, i32, ptr, i32, i32, i16, ptr, ptr, ptr, ptr, ptr, ptr, i32 }
%struct.job_step_create_response_msg = type { i32, i32, i32, ptr, ptr, ptr, ptr, ptr, ptr, i16 }
%struct.slurm_step_layout = type { ptr, i32, ptr, ptr, ptr, i32, ptr, i16, i16, ptr, i32, i32, ptr }

@.str.2 = private unnamed_addr constant [14 x i8] c"step_launch.c\00", align 1
@__func__.step_launch_state_create = private unnamed_addr constant [25 x i8] c"step_launch_state_create\00", align 1
@.str.18 = private unnamed_addr constant [29 x i8] c"%s: pthread_mutex_init(): %m\00", align 1
@.str.19 = private unnamed_addr constant [28 x i8] c"%s: pthread_cond_init(): %m\00", align 1

; Function Attrs: nounwind uwtable
define dso_local ptr @step_launch_state_create(ptr noundef %0) #0 {
  %2 = alloca ptr, align 8
  %3 = alloca ptr, align 8
  %4 = alloca ptr, align 8
  %5 = alloca i32, align 4
  %6 = alloca i32, align 4
  %7 = alloca i32, align 4
  store ptr %0, ptr %2, align 8
  call void @llvm.lifetime.start.p0(i64 8, ptr %3) #10
  call void @llvm.lifetime.start.p0(i64 8, ptr %4) #10
  %8 = load ptr, ptr %2, align 8
  %9 = getelementptr inbounds nuw %struct.slurm_step_ctx_struct, ptr %8, i32 0, i32 3
  %10 = load ptr, ptr %9, align 8
  %11 = getelementptr inbounds nuw %struct.job_step_create_response_msg, ptr %10, i32 0, i32 4
  %12 = load ptr, ptr %11, align 8
  store ptr %12, ptr %4, align 8
  call void @llvm.lifetime.start.p0(i64 4, ptr %5) #10
  %13 = call ptr @slurm_xcalloc(i64 noundef 1, i64 noundef 304, i1 noundef zeroext true, i1 noundef zeroext false, ptr noundef @.str.2, i32 noundef 934, ptr noundef @__func__.step_launch_state_create)
  store ptr %13, ptr %3, align 8
  %14 = load ptr, ptr %3, align 8
  %15 = getelementptr inbounds nuw %struct.step_launch_state, ptr %14, i32 0, i32 16
  store i32 -1, ptr %15, align 8
  %16 = load ptr, ptr %4, align 8
  %17 = getelementptr inbounds nuw %struct.slurm_step_layout, ptr %16, i32 0, i32 10
  %18 = load i32, ptr %17, align 8
  %19 = load ptr, ptr %3, align 8
  %20 = getelementptr inbounds nuw %struct.step_launch_state, ptr %19, i32 0, i32 2
  store i32 %18, ptr %20, align 8
  %21 = load ptr, ptr %4, align 8
  %22 = getelementptr inbounds nuw %struct.slurm_step_layout, ptr %21, i32 0, i32 10
  %23 = load i32, ptr %22, align 8
  %24 = zext i32 %23 to i64
  %25 = call ptr @bit_alloc(i64 noundef %24)
  %26 = load ptr, ptr %3, align 8
  %27 = getelementptr inbounds nuw %struct.step_launch_state, ptr %26, i32 0, i32 3
  store ptr %25, ptr %27, align 8
  %28 = load ptr, ptr %4, align 8
  %29 = getelementptr inbounds nuw %struct.slurm_step_layout, ptr %28, i32 0, i32 10
  %30 = load i32, ptr %29, align 8
  %31 = zext i32 %30 to i64
  %32 = call ptr @bit_alloc(i64 noundef %31)
  %33 = load ptr, ptr %3, align 8
  %34 = getelementptr inbounds nuw %struct.step_launch_state, ptr %33, i32 0, i32 4
  store ptr %32, ptr %34, align 8
  %35 = load ptr, ptr %4, align 8
  %36 = getelementptr inbounds nuw %struct.slurm_step_layout, ptr %35, i32 0, i32 5
  %37 = load i32, ptr %36, align 8
  %38 = zext i32 %37 to i64
  %39 = call ptr @bit_alloc(i64 noundef %38)
  %40 = load ptr, ptr %3, align 8
  %41 = getelementptr inbounds nuw %struct.step_launch_state, ptr %40, i32 0, i32 5
  store ptr %39, ptr %41, align 8
  %42 = load ptr, ptr %4, align 8
  %43 = getelementptr inbounds nuw %struct.slurm_step_layout, ptr %42, i32 0, i32 5
  %44 = load i32, ptr %43, align 8
  %45 = zext i32 %44 to i64
  %46 = call ptr @slurm_xcalloc(i64 noundef %45, i64 noundef 8, i1 noundef zeroext true, i1 noundef zeroext false, ptr noundef @.str.2, i32 noundef 940, ptr noundef @__func__.step_launch_state_create)
  %47 = load ptr, ptr %3, align 8
  %48 = getelementptr inbounds nuw %struct.step_launch_state, ptr %47, i32 0, i32 8
  store ptr %46, ptr %48, align 8
  %49 = load ptr, ptr %3, align 8
  %50 = getelementptr inbounds nuw %struct.step_launch_state, ptr %49, i32 0, i32 7
  store i8 0, ptr %50, align 8
  %51 = load ptr, ptr %3, align 8
  %52 = getelementptr inbounds nuw %struct.step_launch_state, ptr %51, i32 0, i32 9
  store i32 0, ptr %52, align 8
  %53 = load ptr, ptr %3, align 8
  %54 = getelementptr inbounds nuw %struct.step_launch_state, ptr %53, i32 0, i32 10
  store i8 0, ptr %54, align 4
  %55 = load ptr, ptr %4, align 8
  %56 = load ptr, ptr %3, align 8
  %57 = getelementptr inbounds nuw %struct.step_launch_state, ptr %56, i32 0, i32 20
  store ptr %55, ptr %57, align 8
  %58 = load ptr, ptr %3, align 8
  %59 = getelementptr inbounds nuw %struct.step_launch_state, ptr %58, i32 0, i32 18
  store ptr null, ptr %59, align 8
  %60 = load ptr, ptr %3, align 8
  %61 = getelementptr inbounds nuw %struct.step_launch_state, ptr %60, i32 0, i32 11
  store i8 0, ptr %61, align 1
  %62 = load ptr, ptr %3, align 8
  %63 = getelementptr inbounds nuw %struct.step_launch_state, ptr %62, i32 0, i32 12
  store i8 0, ptr %63, align 2
  %64 = load ptr, ptr %3, align 8
  %65 = getelementptr inbounds nuw %struct.step_launch_state, ptr %64, i32 0, i32 21
  %66 = getelementptr inbounds [1 x %struct.mpi_step_info_t], ptr %65, i64 0, i64 0
  %67 = getelementptr inbounds nuw %struct.mpi_step_info_t, ptr %66, i32 0, i32 2
  %68 = load ptr, ptr %2, align 8
  %69 = getelementptr inbounds nuw %struct.slurm_step_ctx_struct, ptr %68, i32 0, i32 2
  %70 = load ptr, ptr %69, align 8
  %71 = getelementptr inbounds nuw %struct.job_step_specs, ptr %70, i32 0, i32 28
  call void @llvm.memcpy.p0.p0.i64(ptr align 8 %67, ptr align 8 %71, i64 24, i1 false)
  %72 = load ptr, ptr %3, align 8
  %73 = getelementptr inbounds nuw %struct.step_launch_state, ptr %72, i32 0, i32 21
  %74 = getelementptr inbounds [1 x %struct.mpi_step_info_t], ptr %73, i64 0, i64 0
  %75 = getelementptr inbounds nuw %struct.mpi_step_info_t, ptr %74, i32 0, i32 0
  store i32 -2, ptr %75, align 8
  %76 = load ptr, ptr %3, align 8
  %77 = getelementptr inbounds nuw %struct.step_launch_state, ptr %76, i32 0, i32 21
  %78 = getelementptr inbounds [1 x %struct.mpi_step_info_t], ptr %77, i64 0, i64 0
  %79 = getelementptr inbounds nuw %struct.mpi_step_info_t, ptr %78, i32 0, i32 1
  store i32 -2, ptr %79, align 4
  %80 = load ptr, ptr %4, align 8
  %81 = load ptr, ptr %3, align 8
  %82 = getelementptr inbounds nuw %struct.step_launch_state, ptr %81, i32 0, i32 21
  %83 = getelementptr inbounds [1 x %struct.mpi_step_info_t], ptr %82, i64 0, i64 0
  %84 = getelementptr inbounds nuw %struct.mpi_step_info_t, ptr %83, i32 0, i32 3
  store ptr %80, ptr %84, align 8
  %85 = load ptr, ptr %3, align 8
  %86 = getelementptr inbounds nuw %struct.step_launch_state, ptr %85, i32 0, i32 22
  store ptr null, ptr %86, align 8
  br label %87

87:                                               ; preds = %1
  call void @llvm.lifetime.start.p0(i64 4, ptr %6) #10
  %88 = load ptr, ptr %3, align 8
  %89 = getelementptr inbounds nuw %struct.step_launch_state, ptr %88, i32 0, i32 0
  %90 = call i32 @pthread_mutex_init(ptr noundef %89, ptr noundef null) #10
  store i32 %90, ptr %6, align 4
  %91 = load i32, ptr %6, align 4
  %92 = icmp ne i32 %91, 0
  br i1 %92, label %93, label %96

93:                                               ; preds = %87
  %94 = load i32, ptr %6, align 4
  %95 = call ptr @__errno_location() #11
  store i32 %94, ptr %95, align 4
  call void (ptr, ...) @fatal_abort(ptr noundef @.str.18, ptr noundef @__func__.step_launch_state_create) #12
  unreachable

96:                                               ; preds = %87
  call void @llvm.lifetime.end.p0(i64 4, ptr %6) #10
  br label %97

97:                                               ; preds = %96
  br label %98

98:                                               ; preds = %97
  br label %99

99:                                               ; preds = %98
  call void @llvm.lifetime.start.p0(i64 4, ptr %7) #10
  %100 = load ptr, ptr %3, align 8
  %101 = getelementptr inbounds nuw %struct.step_launch_state, ptr %100, i32 0, i32 1
  %102 = call i32 @pthread_cond_init(ptr noundef %101, ptr noundef null) #10
  store i32 %102, ptr %7, align 4
  %103 = load i32, ptr %7, align 4
  %104 = icmp ne i32 %103, 0
  br i1 %104, label %105, label %108

105:                                              ; preds = %99
  %106 = load i32, ptr %7, align 4
  %107 = call ptr @__errno_location() #11
  store i32 %106, ptr %107, align 4
  call void (ptr, ...) @fatal_abort(ptr noundef @.str.19, ptr noundef @__func__.step_launch_state_create) #12
  unreachable

108:                                              ; preds = %99
  call void @llvm.lifetime.end.p0(i64 4, ptr %7) #10
  br label %109

109:                                              ; preds = %108
  br label %110

110:                                              ; preds = %109
  store i32 0, ptr %5, align 4
  br label %111

111:                                              ; preds = %124, %110
  %112 = load i32, ptr %5, align 4
  %113 = load ptr, ptr %4, align 8
  %114 = getelementptr inbounds nuw %struct.slurm_step_layout, ptr %113, i32 0, i32 5
  %115 = load i32, ptr %114, align 8
  %116 = icmp ult i32 %112, %115
  br i1 %116, label %117, label %127

117:                                              ; preds = %111
  %118 = load ptr, ptr %3, align 8
  %119 = getelementptr inbounds nuw %struct.step_launch_state, ptr %118, i32 0, i32 8
  %120 = load ptr, ptr %119, align 8
  %121 = load i32, ptr %5, align 4
  %122 = sext i32 %121 to i64
  %123 = getelementptr inbounds i64, ptr %120, i64 %122
  store i64 4294967294, ptr %123, align 8
  br label %124

124:                                              ; preds = %117
  %125 = load i32, ptr %5, align 4
  %126 = add nsw i32 %125, 1
  store i32 %126, ptr %5, align 4
  br label %111, !llvm.loop !20

127:                                              ; preds = %111
  %128 = load ptr, ptr %3, align 8
  call void @llvm.lifetime.end.p0(i64 4, ptr %5) #10
  call void @llvm.lifetime.end.p0(i64 8, ptr %4) #10
  call void @llvm.lifetime.end.p0(i64 8, ptr %3) #10
  ret ptr %128
}