; Function Attrs: nounwind uwtable
define dso_local ptr @step_launch_state_create(ptr noundef readonly captures(none) %0) local_unnamed_addr #3 {
  %2 = getelementptr inbounds nuw i8, ptr %0, i64 16
  %3 = load ptr, ptr %2, align 8
  %4 = getelementptr inbounds nuw i8, ptr %3, i64 24
  %5 = load ptr, ptr %4, align 8
  %6 = tail call ptr @slurm_xcalloc(i64 noundef 1, i64 noundef 304, i1 noundef zeroext true, i1 noundef zeroext false, ptr noundef nonnull @.str.2, i32 noundef 934, ptr noundef nonnull @__func__.step_launch_state_create) #14
  %7 = getelementptr inbounds nuw i8, ptr %6, i64 176
  store i32 -1, ptr %7, align 8
  %8 = getelementptr inbounds nuw i8, ptr %5, i64 72
  %9 = load i32, ptr %8, align 8
  %10 = getelementptr inbounds nuw i8, ptr %6, i64 88
  store i32 %9, ptr %10, align 8
  %11 = zext i32 %9 to i64
  %12 = tail call ptr @bit_alloc(i64 noundef %11) #14
  %13 = getelementptr inbounds nuw i8, ptr %6, i64 96
  store ptr %12, ptr %13, align 8
  %14 = load i32, ptr %8, align 8
  %15 = zext i32 %14 to i64
  %16 = tail call ptr @bit_alloc(i64 noundef %15) #14
  %17 = getelementptr inbounds nuw i8, ptr %6, i64 104
  store ptr %16, ptr %17, align 8
  %18 = getelementptr inbounds nuw i8, ptr %5, i64 40
  %19 = load i32, ptr %18, align 8
  %20 = zext i32 %19 to i64
  %21 = tail call ptr @bit_alloc(i64 noundef %20) #14
  %22 = getelementptr inbounds nuw i8, ptr %6, i64 112
  store ptr %21, ptr %22, align 8
  %23 = load i32, ptr %18, align 8
  %24 = zext i32 %23 to i64
  %25 = tail call ptr @slurm_xcalloc(i64 noundef %24, i64 noundef 8, i1 noundef zeroext true, i1 noundef zeroext false, ptr noundef nonnull @.str.2, i32 noundef 940, ptr noundef nonnull @__func__.step_launch_state_create) #14
  %26 = getelementptr inbounds nuw i8, ptr %6, i64 136
  store ptr %25, ptr %26, align 8
  %27 = getelementptr inbounds nuw i8, ptr %6, i64 128
  store i8 0, ptr %27, align 8
  %28 = getelementptr inbounds nuw i8, ptr %6, i64 144
  store i32 0, ptr %28, align 8
  %29 = getelementptr inbounds nuw i8, ptr %6, i64 148
  store i8 0, ptr %29, align 4
  %30 = getelementptr inbounds nuw i8, ptr %6, i64 200
  store ptr %5, ptr %30, align 8
  %31 = getelementptr inbounds nuw i8, ptr %6, i64 184
  store ptr null, ptr %31, align 8
  %32 = getelementptr inbounds nuw i8, ptr %6, i64 149
  store i8 0, ptr %32, align 1
  %33 = getelementptr inbounds nuw i8, ptr %6, i64 150
  store i8 0, ptr %33, align 2
  %34 = getelementptr inbounds nuw i8, ptr %6, i64 208
  %35 = getelementptr inbounds nuw i8, ptr %6, i64 216
  %36 = getelementptr inbounds nuw i8, ptr %0, i64 8
  %37 = load ptr, ptr %36, align 8
  %38 = getelementptr inbounds nuw i8, ptr %37, i64 160
  tail call void @llvm.memcpy.p0.p0.i64(ptr noundef nonnull align 8 dereferenceable(24) %35, ptr noundef nonnull align 8 dereferenceable(24) %38, i64 24, i1 false)
  store i32 -2, ptr %34, align 8
  %39 = getelementptr inbounds nuw i8, ptr %6, i64 212
  store i32 -2, ptr %39, align 4
  %40 = getelementptr inbounds nuw i8, ptr %6, i64 240
  store ptr %5, ptr %40, align 8
  %41 = getelementptr inbounds nuw i8, ptr %6, i64 248
  store ptr null, ptr %41, align 8
  %42 = tail call i32 @pthread_mutex_init(ptr noundef %6, ptr noundef null) #14
  %.not = icmp eq i32 %42, 0
  br i1 %.not, label %45, label %43

43:                                               ; preds = %1
  %44 = tail call ptr @__errno_location() #15
  store i32 %42, ptr %44, align 4
  tail call void (ptr, ...) @fatal_abort(ptr noundef nonnull @.str.18, ptr noundef nonnull @__func__.step_launch_state_create) #16
  unreachable

45:                                               ; preds = %1
  %46 = getelementptr inbounds nuw i8, ptr %6, i64 40
  %47 = tail call i32 @pthread_cond_init(ptr noundef nonnull %46, ptr noundef null) #14
  %.not40 = icmp eq i32 %47, 0
  br i1 %.not40, label %.preheader, label %49

.preheader:                                       ; preds = %45
  %48 = load i32, ptr %18, align 8
  %.not42 = icmp eq i32 %48, 0
  br i1 %.not42, label %._crit_edge, label %.lr.ph

49:                                               ; preds = %45
  %50 = tail call ptr @__errno_location() #15
  store i32 %47, ptr %50, align 4
  tail call void (ptr, ...) @fatal_abort(ptr noundef nonnull @.str.19, ptr noundef nonnull @__func__.step_launch_state_create) #16
  unreachable

.lr.ph:                                           ; preds = %.preheader, %.lr.ph
  %indvars.iv = phi i64 [ %indvars.iv.next, %.lr.ph ], [ 0, %.preheader ]
  %51 = load ptr, ptr %26, align 8
  %52 = getelementptr inbounds nuw i64, ptr %51, i64 %indvars.iv
  store i64 4294967294, ptr %52, align 8
  %indvars.iv.next = add nuw nsw i64 %indvars.iv, 1
  %53 = load i32, ptr %18, align 8
  %54 = zext i32 %53 to i64
  %55 = icmp samesign ult i64 %indvars.iv.next, %54
  br i1 %55, label %.lr.ph, label %._crit_edge, !llvm.loop !22

._crit_edge:                                      ; preds = %.lr.ph, %.preheader
  ret ptr %6
}